target datalayout = "e-m:e-p270:32:32-p271:32:32-p272:64:64-i64:64-i128:128-f80:128-n8:16:32:64-S128"
target triple = "x86_64-pc-linux-gnu"

%struct.Wlc_Ntk_t_ = type { ptr, ptr, %struct.Vec_Int_t_, %struct.Vec_Int_t_, %struct.Vec_Int_t_, %struct.Vec_Int_t_, %struct.Vec_Int_t_, %struct.Vec_Int_t_, ptr, ptr, ptr, [60 x i32], [60 x i32], i32, i32, i32, i32, i32, ptr, i32, i32, ptr, ptr, ptr, ptr, ptr, %struct.Vec_Int_t_, %struct.Vec_Int_t_, i32, %struct.Vec_Int_t_, %struct.Vec_Int_t_, %struct.Vec_Int_t_, %struct.Vec_Int_t_, %struct.Vec_Int_t_, %struct.Vec_Int_t_ }
%struct.Vec_Int_t_ = type { i32, i32, ptr }
%struct.Wlc_Obj_t_ = type { i16, i32, i32, i32, %union.anon }
%union.anon = type { [1 x ptr] }

; Function Attrs: nounwind uwtable
define internal i32 @Wlc_ObjIsCi(ptr noundef %0) #0 {
  %2 = alloca ptr, align 8
  store ptr %0, ptr %2, align 8
  %3 = load ptr, ptr %2, align 8
  %4 = load i16, ptr %3, align 8
  %5 = and i16 %4, 63
  %6 = zext i16 %5 to i32
  %7 = icmp eq i32 %6, 1
  br i1 %7, label %14, label %8

8:                                                ; preds = %1
  %9 = load ptr, ptr %2, align 8
  %10 = load i16, ptr %9, align 8
  %11 = and i16 %10, 63
  %12 = zext i16 %11 to i32
  %13 = icmp eq i32 %12, 3
  br label %14

14:                                               ; preds = %8, %1
  %15 = phi i1 [ true, %1 ], [ %13, %8 ]
  %16 = zext i1 %15 to i32
  ret i32 %16
}

; Function Attrs: nounwind uwtable
define internal i32 @Wlc_ObjIsPi(ptr noundef %0) #0 {
  %2 = alloca ptr, align 8
  store ptr %0, ptr %2, align 8
  %3 = load ptr, ptr %2, align 8
  %4 = load i16, ptr %3, align 8
  %5 = and i16 %4, 63
  %6 = zext i16 %5 to i32
  %7 = icmp eq i32 %6, 1
  %8 = zext i1 %7 to i32
  ret i32 %8
}

; Function Attrs: nounwind uwtable
define internal ptr @Wlc_NtkObj(ptr noundef %0, i32 noundef %1) #0 {
  %3 = alloca ptr, align 8
  %4 = alloca i32, align 4
  store ptr %0, ptr %3, align 8
  store i32 %1, ptr %4, align 4
  %5 = load ptr, ptr %3, align 8
  %6 = getelementptr inbounds %struct.Wlc_Ntk_t_, ptr %5, i32 0, i32 18
  %7 = load ptr, ptr %6, align 8
  %8 = load i32, ptr %4, align 4
  %9 = sext i32 %8 to i64
  %10 = getelementptr inbounds %struct.Wlc_Obj_t_, ptr %7, i64 %9
  ret ptr %10
}

; Function Attrs: nounwind uwtable
define internal i32 @Wlc_NtkObjNumMax(ptr noundef %0) #0 {
  %2 = alloca ptr, align 8
  store ptr %0, ptr %2, align 8
  %3 = load ptr, ptr %2, align 8
  %4 = getelementptr inbounds %struct.Wlc_Ntk_t_, ptr %3, i32 0, i32 19
  %5 = load i32, ptr %4, align 8
  ret i32 %5
}

; Function Attrs: nounwind uwtable
define i32 @Wlc_NtkCountMarked(ptr noundef %0, ptr noundef %1, ptr noundef %2, ptr noundef %3, ptr noundef %4) #0 {
  %6 = alloca ptr, align 8
  %7 = alloca ptr, align 8
  %8 = alloca ptr, align 8
  %9 = alloca ptr, align 8
  %10 = alloca ptr, align 8
  %11 = alloca ptr, align 8
  %12 = alloca i32, align 4
  %13 = alloca i32, align 4
  store ptr %0, ptr %6, align 8
  store ptr %1, ptr %7, align 8
  store ptr %2, ptr %8, align 8
  store ptr %3, ptr %9, align 8
  store ptr %4, ptr %10, align 8
  store i32 0, ptr %13, align 4
  %14 = load ptr, ptr %10, align 8
  store i32 0, ptr %14, align 4
  %15 = load ptr, ptr %9, align 8
  store i32 0, ptr %15, align 4
  %16 = load ptr, ptr %8, align 8
  store i32 0, ptr %16, align 4
  %17 = load ptr, ptr %7, align 8
  store i32 0, ptr %17, align 4
  store i32 1, ptr %12, align 4
  br label %18

18:                                               ; preds = %93, %5
  %19 = load i32, ptr %12, align 4
  %20 = load ptr, ptr %6, align 8
  %21 = call i32 @Wlc_NtkObjNumMax(ptr noundef %20)
  %22 = icmp slt i32 %19, %21
  br i1 %22, label %23, label %27

23:                                               ; preds = %18
  %24 = load ptr, ptr %6, align 8
  %25 = load i32, ptr %12, align 4
  %26 = call ptr @Wlc_NtkObj(ptr noundef %24, i32 noundef %25)
  store ptr %26, ptr %11, align 8
  br label %27

27:                                               ; preds = %23, %18
  %28 = phi i1 [ false, %18 ], [ true, %23 ]
  br i1 %28, label %29, label %96

29:                                               ; preds = %27
  %30 = load ptr, ptr %11, align 8
  %31 = load i16, ptr %30, align 8
  %32 = lshr i16 %31, 7
  %33 = and i16 %32, 1
  %34 = zext i16 %33 to i32
  %35 = icmp ne i32 %34, 0
  br i1 %35, label %37, label %36

36:                                               ; preds = %29
  br label %93

37:                                               ; preds = %29
  %38 = load ptr, ptr %11, align 8
  %39 = call i32 @Wlc_ObjIsPi(ptr noundef %38)
  %40 = icmp ne i32 %39, 0
  br i1 %40, label %41, label %45

41:                                               ; preds = %37
  %42 = load ptr, ptr %7, align 8
  %43 = load i32, ptr %42, align 4
  %44 = add nsw i32 %43, 1
  store i32 %44, ptr %42, align 4
  br label %92

45:                                               ; preds = %37
  %46 = load ptr, ptr %11, align 8
  %47 = call i32 @Wlc_ObjIsCi(ptr noundef %46)
  %48 = icmp ne i32 %47, 0
  br i1 %48, label %49, label %53

49:                                               ; preds = %45
  %50 = load ptr, ptr %8, align 8
  %51 = load i32, ptr %50, align 4
  %52 = add nsw i32 %51, 1
  store i32 %52, ptr %50, align 4
  br label %91

53:                                               ; preds = %45
  %54 = load ptr, ptr %11, align 8
  %55 = load i16, ptr %54, align 8
  %56 = lshr i16 %55, 7
  %57 = and i16 %56, 1
  %58 = zext i16 %57 to i32
  %59 = icmp ne i32 %58, 0
  br i1 %59, label %60, label %90

60:                                               ; preds = %53
  %61 = load i32, ptr %13, align 4
  %62 = add nsw i32 %61, 1
  store i32 %62, ptr %13, align 4
  %63 = load ptr, ptr %11, align 8
  %64 = load i16, ptr %63, align 8
  %65 = and i16 %64, 63
  %66 = zext i16 %65 to i32
  %67 = icmp eq i32 %66, 43
  br i1 %67, label %74, label %68

68:                                               ; preds = %60
  %69 = load ptr, ptr %11, align 8
  %70 = load i16, ptr %69, align 8
  %71 = and i16 %70, 63
  %72 = zext i16 %71 to i32
  %73 = icmp eq i32 %72, 44
  br i1 %73, label %74, label %78

74:                                               ; preds = %68, %60
  %75 = load ptr, ptr %9, align 8
  %76 = load i32, ptr %75, align 4
  %77 = add nsw i32 %76, 1
  store i32 %77, ptr %75, align 4
  br label %89

78:                                               ; preds = %68
  %79 = load ptr, ptr %11, align 8
  %80 = load i16, ptr %79, align 8
  %81 = and i16 %80, 63
  %82 = zext i16 %81 to i32
  %83 = icmp eq i32 %82, 45
  br i1 %83, label %84, label %88

84:                                               ; preds = %78
  %85 = load ptr, ptr %10, align 8
  %86 = load i32, ptr %85, align 4
  %87 = add nsw i32 %86, 1
  store i32 %87, ptr %85, align 4
  br label %88

88:                                               ; preds = %84, %78
  br label %89

89:                                               ; preds = %88, %74
  br label %90

90:                                               ; preds = %89, %53
  br label %91

91:                                               ; preds = %90, %49
  br label %92

92:                                               ; preds = %91, %41
  br label %93

93:                                               ; preds = %92, %36
  %94 = load i32, ptr %12, align 4
  %95 = add nsw i32 %94, 1
  store i32 %95, ptr %12, align 4
  br label %18, !llvm.loop !73

96:                                               ; preds = %27
  %97 = load i32, ptr %13, align 4
  ret i32 %97
}