; Function Attrs: nofree norecurse nosync nounwind memory(readwrite, inaccessiblemem: none) uwtable
define i32 @Wlc_NtkCountMarked(ptr noundef readonly captures(none) %0, ptr noundef captures(none) initializes((0, 4)) %1, ptr noundef captures(none) initializes((0, 4)) %2, ptr noundef captures(none) initializes((0, 4)) %3, ptr noundef captures(none) initializes((0, 4)) %4) local_unnamed_addr #14 {
  store i32 0, ptr %4, align 4
  store i32 0, ptr %3, align 4
  store i32 0, ptr %2, align 4
  store i32 0, ptr %1, align 4
  %6 = getelementptr i8, ptr %0, i64 648
  %.val2730 = load i32, ptr %6, align 8
  %7 = icmp sgt i32 %.val2730, 1
  br i1 %7, label %.lr.ph, label %.critedge

.lr.ph:                                           ; preds = %5
  %8 = getelementptr i8, ptr %0, i64 640
  br label %9

9:                                                ; preds = %.lr.ph, %22
  %indvars.iv = phi i64 [ 1, %.lr.ph ], [ %indvars.iv.next, %22 ]
  %.032 = phi i32 [ 0, %.lr.ph ], [ %.1, %22 ]
  %.val = load ptr, ptr %8, align 8
  %10 = getelementptr inbounds nuw %struct.Wlc_Obj_t_, ptr %.val, i64 %indvars.iv
  %11 = load i16, ptr %10, align 8
  %12 = and i16 %11, 128
  %.not = icmp eq i16 %12, 0
  br i1 %.not, label %22, label %13

13:                                               ; preds = %9
  %14 = and i16 %11, 63
  %.not29 = icmp eq i16 %14, 1
  br i1 %.not29, label %.sink.split, label %15

15:                                               ; preds = %13
  %16 = and i16 %11, 61
  %narrow.i.not = icmp eq i16 %16, 1
  br i1 %narrow.i.not, label %.sink.split, label %17

17:                                               ; preds = %15
  %18 = add nsw i32 %.032, 1
  switch i16 %14, label %22 [
    i16 43, label %.sink.split
    i16 44, label %.sink.split
    i16 45, label %19
  ]

19:                                               ; preds = %17
  br label %.sink.split

.sink.split:                                      ; preds = %17, %17, %15, %13, %19
  %.sink = phi ptr [ %4, %19 ], [ %1, %13 ], [ %2, %15 ], [ %3, %17 ], [ %3, %17 ]
  %.1.ph = phi i32 [ %18, %19 ], [ %.032, %13 ], [ %.032, %15 ], [ %18, %17 ], [ %18, %17 ]
  %20 = load i32, ptr %.sink, align 4
  %21 = add nsw i32 %20, 1
  store i32 %21, ptr %.sink, align 4
  br label %22

22:                                               ; preds = %.sink.split, %17, %9
  %.1 = phi i32 [ %.032, %9 ], [ %18, %17 ], [ %.1.ph, %.sink.split ]
  %indvars.iv.next = add nuw nsw i64 %indvars.iv, 1
  %.val27 = load i32, ptr %6, align 8
  %23 = sext i32 %.val27 to i64
  %24 = icmp slt i64 %indvars.iv.next, %23
  br i1 %24, label %9, label %.critedge, !llvm.loop !72

.critedge:                                        ; preds = %22, %5
  %.0.lcssa = phi i32 [ 0, %5 ], [ %.1, %22 ]
  ret i32 %.0.lcssa
}